target datalayout = "e-m:e-p270:32:32-p271:32:32-p272:64:64-i64:64-i128:128-f80:128-n8:16:32:64-S128"
target triple = "x86_64-pc-linux-gnu"

%struct._packet_info = type { ptr, ptr, i32, i32, %struct.nstime_t, %struct.nstime_t, %struct.nstime_t, i8, ptr, ptr, ptr, ptr, %struct._address, %struct._address, %struct._address, %struct._address, %struct._address, %struct._address, i32, ptr, i8, [3 x i8], %struct.anon, i32, i32, i32, i32, ptr, i8, ptr, ptr, i16, i16, i32, i32, i16, i32, i32, ptr, ptr, ptr, i8, i8, i16, i16, i16, i32, i16, i16, ptr, ptr, ptr, ptr, ptr, i32, i32 }
%struct.nstime_t = type { i64, i32 }
%struct._address = type { i32, i32, ptr, ptr }
%struct.anon = type { i8, [3 x i8] }

@hf_kafka_member_id = internal global i32 0, align 4
@hf_kafka_member_assignment = internal global i32 0, align 4
@ett_kafka_group_assignment = internal global i32 0, align 4
@.str.710 = private unnamed_addr constant [13 x i8] c" (Member=%s)\00", align 1
@.str.712 = private unnamed_addr constant [17 x i8] c"Group Assignment\00", align 1

; Function Attrs: null_pointer_is_valid sspstrong uwtable
define internal i32 @dissect_kafka_sync_group_request_group_assignment(ptr noundef %0, ptr noundef %1, ptr noundef %2, i32 noundef %3, i16 noundef signext %4) #0 {
  %6 = alloca ptr, align 8
  %7 = alloca ptr, align 8
  %8 = alloca ptr, align 8
  %9 = alloca i32, align 4
  %10 = alloca i16, align 2
  %11 = alloca ptr, align 8
  %12 = alloca ptr, align 8
  %13 = alloca i32, align 4
  %14 = alloca i32, align 4
  store ptr %0, ptr %6, align 8
  store ptr %1, ptr %7, align 8
  store ptr %2, ptr %8, align 8
  store i32 %3, ptr %9, align 4
  store i16 %4, ptr %10, align 2
  call void @llvm.lifetime.start.p0(i64 8, ptr %11) #12
  call void @llvm.lifetime.start.p0(i64 8, ptr %12) #12
  call void @llvm.lifetime.start.p0(i64 4, ptr %13) #12
  call void @llvm.lifetime.start.p0(i64 4, ptr %14) #12
  %15 = load ptr, ptr %8, align 8
  %16 = load ptr, ptr %6, align 8
  %17 = load i32, ptr %9, align 4
  %18 = load i32, ptr @ett_kafka_group_assignment, align 4
  %19 = call ptr @proto_tree_add_subtree(ptr noundef %15, ptr noundef %16, i32 noundef %17, i32 noundef -1, i32 noundef %18, ptr noundef %11, ptr noundef @.str.712)
  store ptr %19, ptr %12, align 8
  %20 = load ptr, ptr %12, align 8
  %21 = load i32, ptr @hf_kafka_member_id, align 4
  %22 = load ptr, ptr %6, align 8
  %23 = load ptr, ptr %7, align 8
  %24 = load i32, ptr %9, align 4
  %25 = load i16, ptr %10, align 2
  %26 = sext i16 %25 to i32
  %27 = icmp sge i32 %26, 4
  %28 = zext i1 %27 to i32
  %29 = call i32 @dissect_kafka_string(ptr noundef %20, i32 noundef %21, ptr noundef %22, ptr noundef %23, i32 noundef %24, i32 noundef %28, ptr noundef %13, ptr noundef %14)
  store i32 %29, ptr %9, align 4
  %30 = load ptr, ptr %12, align 8
  %31 = load i32, ptr @hf_kafka_member_assignment, align 4
  %32 = load ptr, ptr %6, align 8
  %33 = load ptr, ptr %7, align 8
  %34 = load i32, ptr %9, align 4
  %35 = load i16, ptr %10, align 2
  %36 = sext i16 %35 to i32
  %37 = icmp sge i32 %36, 4
  %38 = zext i1 %37 to i32
  %39 = call i32 @dissect_kafka_bytes(ptr noundef %30, i32 noundef %31, ptr noundef %32, ptr noundef %33, i32 noundef %34, i32 noundef %38, ptr noundef null, ptr noundef null)
  store i32 %39, ptr %9, align 4
  %40 = load i16, ptr %10, align 2
  %41 = sext i16 %40 to i32
  %42 = icmp sge i32 %41, 4
  br i1 %42, label %43, label %49

43:                                               ; preds = %5
  %44 = load ptr, ptr %6, align 8
  %45 = load ptr, ptr %7, align 8
  %46 = load ptr, ptr %12, align 8
  %47 = load i32, ptr %9, align 4
  %48 = call i32 @dissect_kafka_tagged_fields(ptr noundef %44, ptr noundef %45, ptr noundef %46, i32 noundef %47, i16 noundef signext 0)
  store i32 %48, ptr %9, align 4
  br label %49

49:                                               ; preds = %43, %5
  %50 = load ptr, ptr %11, align 8
  %51 = load ptr, ptr %6, align 8
  %52 = load i32, ptr %9, align 4
  call void @proto_item_set_end(ptr noundef %50, ptr noundef %51, i32 noundef %52)
  %53 = load ptr, ptr %11, align 8
  %54 = load ptr, ptr %7, align 8
  %55 = getelementptr inbounds nuw %struct._packet_info, ptr %54, i32 0, i32 51
  %56 = load ptr, ptr %55, align 8
  %57 = load ptr, ptr %6, align 8
  %58 = load i32, ptr %13, align 4
  %59 = load i32, ptr %14, align 4
  %60 = call ptr @tvb_get_string_enc(ptr noundef %56, ptr noundef %57, i32 noundef %58, i32 noundef %59, i32 noundef 2)
  call void (ptr, ptr, ...) @proto_item_append_text(ptr noundef %53, ptr noundef @.str.710, ptr noundef %60)
  %61 = load i32, ptr %9, align 4
  call void @llvm.lifetime.end.p0(i64 4, ptr %14) #12
  call void @llvm.lifetime.end.p0(i64 4, ptr %13) #12
  call void @llvm.lifetime.end.p0(i64 8, ptr %12) #12
  call void @llvm.lifetime.end.p0(i64 8, ptr %11) #12
  ret i32 %61
}